EXPORTS
    CreateInvestment @1
    SampleFunction @2
    _Z7DeleterP10Investment @3
    _Z9DeleterIIP10Investment @4
    _ZN10Investment11GetDaysHeldEv @5
    _ZN10InvestmentC1ERKi @6
    _ZN10InvestmentC2ERKi @7
    _ZN10InvestmentD1Ev @8
    _ZN10InvestmentD2Ev @9
    _ZNK10Investment9IsTaxFreeEv @10
    _ZNSt3tr110shared_ptrI10InvestmentEC1IS1_PFvPS1_EEEPT_T0_ @11
    _ZNSt3tr110shared_ptrI10InvestmentED1Ev @12
    _ZNSt3tr110shared_ptrI10InvestmentEaSEOS2_ @13
    _ZNSt3tr112__shared_ptrI10InvestmentLN9__gnu_cxx12_Lock_policyE2EEC2IS1_PFvPS1_EEEPT_T0_ @14
    _ZNSt3tr112__shared_ptrI10InvestmentLN9__gnu_cxx12_Lock_policyE2EED2Ev @15
    _ZNSt3tr112__shared_ptrI10InvestmentLN9__gnu_cxx12_Lock_policyE2EEaSEOS4_ @16
    _ZNSt3tr114__shared_countILN9__gnu_cxx12_Lock_policyE2EEC1IP10InvestmentPFvS6_EEET_T0_ @17
    _ZNSt3tr114__shared_countILN9__gnu_cxx12_Lock_policyE2EED1Ev @18
    _ZNSt3tr114__shared_countILN9__gnu_cxx12_Lock_policyE2EEaSERKS3_ @19
    _ZNSt3tr116_Sp_counted_baseILN9__gnu_cxx12_Lock_policyE2EE10_M_destroyEv @20
    _ZNSt3tr116_Sp_counted_baseILN9__gnu_cxx12_Lock_policyE2EE10_M_releaseEv @21
    _ZNSt3tr116_Sp_counted_baseILN9__gnu_cxx12_Lock_policyE2EE15_M_add_ref_copyEv @22
    _ZNSt3tr116_Sp_counted_baseILN9__gnu_cxx12_Lock_policyE2EEC2Ev @23
    _ZNSt3tr116_Sp_counted_baseILN9__gnu_cxx12_Lock_policyE2EED2Ev @24
    _ZNSt3tr121_Sp_counted_base_implIP10InvestmentPFvS2_ELN9__gnu_cxx12_Lock_policyE2EE10_M_disposeEv @25
    _ZNSt3tr121_Sp_counted_base_implIP10InvestmentPFvS2_ELN9__gnu_cxx12_Lock_policyE2EE14_M_get_deleterERKSt9type_info @26
    _ZNSt3tr121_Sp_counted_base_implIP10InvestmentPFvS2_ELN9__gnu_cxx12_Lock_policyE2EEC1ES2_S4_ @27
    _ZNSt3tr121_Sp_counted_base_implIP10InvestmentPFvS2_ELN9__gnu_cxx12_Lock_policyE2EED0Ev @28
    _ZNSt3tr121_Sp_counted_base_implIP10InvestmentPFvS2_ELN9__gnu_cxx12_Lock_policyE2EED1Ev @29
    _ZNSt3tr132__enable_shared_from_this_helperILN9__gnu_cxx12_Lock_policyE2EEEvRKNS_14__shared_countIXT_EEEz @30
    _ZTIFvP10InvestmentE @31 DATA
    _ZTINSt3tr111_Mutex_baseILN9__gnu_cxx12_Lock_policyE2EEE @32 DATA
    _ZTINSt3tr116_Sp_counted_baseILN9__gnu_cxx12_Lock_policyE2EEE @33 DATA
    _ZTINSt3tr121_Sp_counted_base_implIP10InvestmentPFvS2_ELN9__gnu_cxx12_Lock_policyE2EEE @34 DATA
    _ZTIPFvP10InvestmentE @35 DATA
    _ZTSFvP10InvestmentE @36 DATA
    _ZTSNSt3tr111_Mutex_baseILN9__gnu_cxx12_Lock_policyE2EEE @37 DATA
    _ZTSNSt3tr116_Sp_counted_baseILN9__gnu_cxx12_Lock_policyE2EEE @38 DATA
    _ZTSNSt3tr121_Sp_counted_base_implIP10InvestmentPFvS2_ELN9__gnu_cxx12_Lock_policyE2EEE @39 DATA
    _ZTSPFvP10InvestmentE @40 DATA
    _ZTVNSt3tr116_Sp_counted_baseILN9__gnu_cxx12_Lock_policyE2EEE @41 DATA
    _ZTVNSt3tr121_Sp_counted_base_implIP10InvestmentPFvS2_ELN9__gnu_cxx12_Lock_policyE2EEE @42 DATA
